Certificate:
    Data:
        Version: 3 (0x2)
        Serial Number: 165031 (0x284a7)
        Signature Algorithm: sha256WithRSAEncryption
        Issuer: CN=web-platform-tests
        Validity
            Not Before: Jan 12 01:13:40 2025 GMT
            Not After : Jan 12 01:13:40 2026 GMT
        Subject: CN=web-platform.test
        Subject Public Key Info:
            Public Key Algorithm: rsaEncryption
                RSA Public-Key: (2048 bit)
                Modulus:
                    00:a5:81:5d:0e:85:ae:d1:22:9e:a0:89:b9:95:cf:
                    87:cf:39:0e:ff:a7:81:45:75:0c:5d:c9:86:26:22:
                    60:a1:fb:6a:fb:45:a7:50:f2:99:34:34:78:6d:92:
                    39:59:7c:93:14:2d:f7:24:14:aa:79:ba:e7:d4:1c:
                    51:ce:36:b2:a5:28:cf:a4:f0:32:d7:55:07:45:4c:
                    07:68:95:45:64:78:95:25:a0:4c:09:d2:ee:3d:64:
                    bb:aa:8a:7a:9a:2d:5b:49:aa:4b:0a:4f:7b:93:6b:
                    38:78:4f:0b:7d:b9:79:21:5e:ba:11:d7:31:fd:fc:
                    e2:48:28:4d:f2:6c:3e:fb:d5:d3:e3:d2:21:c2:33:
                    a5:a7:d8:3a:4c:a5:ff:f2:70:50:7a:8a:16:10:49:
                    fc:aa:da:9c:92:95:30:28:a1:61:cd:94:0c:03:52:
                    ee:95:ae:f9:b7:3d:5c:30:e2:e6:2a:97:9f:4e:0e:
                    57:f4:85:c4:f4:3d:79:94:91:90:0c:e1:b6:ab:71:
                    f0:d6:22:ae:57:d1:0b:81:b8:63:4f:33:e5:f3:bb:
                    9d:3b:6a:e9:2d:ac:14:e8:8a:00:a8:08:8e:e3:58:
                    63:d5:07:66:12:23:98:68:1d:a5:80:f7:8e:08:17:
                    e6:0b:91:33:b1:d1:36:b7:66:c0:63:71:c4:67:9f:
                    25:d7
                Exponent: 65537 (0x10001)
        X509v3 extensions:
            X509v3 Basic Constraints: 
                CA:FALSE
            X509v3 Subject Key Identifier: 
                9C:DE:4F:71:91:89:34:DF:48:03:D9:CF:F9:8B:0F:4F:37:F4:8A:3B
            X509v3 Authority Key Identifier: 
                keyid:DC:46:66:1A:E5:27:B6:DE:CD:6D:76:81:5A:59:0E:C9:7B:A6:3E:7F

            X509v3 Key Usage: 
                Digital Signature, Non Repudiation, Key Encipherment
            X509v3 Extended Key Usage: 
                TLS Web Server Authentication
            X509v3 Subject Alternative Name: 
                DNS:web-platform.test, DNS:www.web-platform.test, DNS:not-web-platform.test, DNS:www2.web-platform.test, DNS:www1.web-platform.test, DNS:www.www.web-platform.test, DNS:www.not-web-platform.test, DNS:www.www2.web-platform.test, DNS:www1.not-web-platform.test, DNS:www2.not-web-platform.test, DNS:www1.www.web-platform.test, DNS:www.www1.web-platform.test, DNS:www2.www.web-platform.test, DNS:www2.www1.web-platform.test, DNS:www1.www1.web-platform.test, DNS:www2.www2.web-platform.test, DNS:www1.www2.web-platform.test, DNS:www.www.not-web-platform.test, DNS:www.www2.not-web-platform.test, DNS:xn--lve-6lad.web-platform.test, DNS:www2.www.not-web-platform.test, DNS:www1.www.not-web-platform.test, DNS:www.www1.not-web-platform.test, DNS:www1.www2.not-web-platform.test, DNS:www2.www1.not-web-platform.test, DNS:www1.www1.not-web-platform.test, DNS:www2.www2.not-web-platform.test, DNS:xn--lve-6lad.www.web-platform.test, DNS:xn--lve-6lad.not-web-platform.test, DNS:www.xn--lve-6lad.web-platform.test, DNS:xn--lve-6lad.www2.web-platform.test, DNS:xn--lve-6lad.www1.web-platform.test, DNS:www2.xn--lve-6lad.web-platform.test, DNS:www1.xn--lve-6lad.web-platform.test, DNS:xn--lve-6lad.www.not-web-platform.test, DNS:www.xn--lve-6lad.not-web-platform.test, DNS:xn--lve-6lad.www1.not-web-platform.test, DNS:www1.xn--lve-6lad.not-web-platform.test, DNS:xn--lve-6lad.www2.not-web-platform.test, DNS:www2.xn--lve-6lad.not-web-platform.test, DNS:xn--n8j6ds53lwwkrqhv28a.web-platform.test, DNS:xn--lve-6lad.xn--lve-6lad.web-platform.test, DNS:xn--n8j6ds53lwwkrqhv28a.www.web-platform.test, DNS:www.xn--n8j6ds53lwwkrqhv28a.web-platform.test, DNS:xn--n8j6ds53lwwkrqhv28a.not-web-platform.test, DNS:www1.xn--n8j6ds53lwwkrqhv28a.web-platform.test, DNS:www2.xn--n8j6ds53lwwkrqhv28a.web-platform.test, DNS:xn--n8j6ds53lwwkrqhv28a.www2.web-platform.test, DNS:xn--n8j6ds53lwwkrqhv28a.www1.web-platform.test, DNS:xn--lve-6lad.xn--lve-6lad.not-web-platform.test, DNS:www.xn--n8j6ds53lwwkrqhv28a.not-web-platform.test, DNS:xn--n8j6ds53lwwkrqhv28a.www.not-web-platform.test, DNS:xn--n8j6ds53lwwkrqhv28a.www2.not-web-platform.test, DNS:www2.xn--n8j6ds53lwwkrqhv28a.not-web-platform.test, DNS:www1.xn--n8j6ds53lwwkrqhv28a.not-web-platform.test, DNS:xn--n8j6ds53lwwkrqhv28a.www1.not-web-platform.test, DNS:xn--n8j6ds53lwwkrqhv28a.xn--lve-6lad.web-platform.test, DNS:xn--lve-6lad.xn--n8j6ds53lwwkrqhv28a.web-platform.test, DNS:xn--n8j6ds53lwwkrqhv28a.xn--lve-6lad.not-web-platform.test, DNS:xn--lve-6lad.xn--n8j6ds53lwwkrqhv28a.not-web-platform.test, DNS:xn--n8j6ds53lwwkrqhv28a.xn--n8j6ds53lwwkrqhv28a.web-platform.test, DNS:xn--n8j6ds53lwwkrqhv28a.xn--n8j6ds53lwwkrqhv28a.not-web-platform.test
    Signature Algorithm: sha256WithRSAEncryption
         a8:3d:cb:c5:6d:30:29:ba:b4:ed:1f:23:89:bb:2a:6c:c2:21:
         48:76:d9:f1:4a:89:5d:96:ba:c8:ff:bd:f8:66:ee:3e:39:b0:
         85:b4:f6:69:ea:19:3a:dc:b9:00:e7:9b:86:74:1b:ce:b8:77:
         62:fb:91:0d:48:2c:a1:cf:6b:cb:62:71:e0:4f:88:39:a0:93:
         05:0c:e3:bf:ef:d6:b6:90:af:72:ab:ed:ba:3c:5b:80:f5:bd:
         81:52:22:34:2d:6a:c8:be:dc:5f:26:bd:bd:f5:7c:6c:07:41:
         e3:ae:51:f9:f5:ec:54:43:0c:cd:52:c0:a9:1f:52:d7:82:7d:
         cf:35:8d:71:e3:cd:6f:dd:76:fb:09:08:c6:ae:d9:a0:23:8b:
         1f:d2:19:a5:d4:e6:a1:d1:69:f4:7e:12:23:69:c9:45:2d:e2:
         1d:8b:42:5f:51:e2:58:a7:65:d9:e8:cf:6b:d6:76:34:59:d4:
         c4:c7:3a:02:85:4f:c5:09:20:55:34:7c:9f:4a:eb:d9:ba:34:
         b8:fe:26:e4:67:17:db:17:03:76:c5:3e:39:5f:8e:f9:4a:2a:
         c9:e5:f7:0f:72:f5:28:98:74:42:f8:cb:a6:5c:af:68:68:ad:
         97:17:3d:fe:71:3e:02:a8:5a:c9:b2:2a:63:52:e6:3f:f7:2a:
         54:85:b8:98
-----BEGIN CERTIFICATE-----
MIIMsjCCC5qgAwIBAgIDAoSnMA0GCSqGSIb3DQEBCwUAMB0xGzAZBgNVBAMMEndl
Yi1wbGF0Zm9ybS10ZXN0czAeFw0yNTAxMTIwMTEzNDBaFw0yNjAxMTIwMTEzNDBa
MBwxGjAYBgNVBAMMEXdlYi1wbGF0Zm9ybS50ZXN0MIIBIjANBgkqhkiG9w0BAQEF
AAOCAQ8AMIIBCgKCAQEApYFdDoWu0SKeoIm5lc+HzzkO/6eBRXUMXcmGJiJgoftq
+0WnUPKZNDR4bZI5WXyTFC33JBSqebrn1BxRzjaypSjPpPAy11UHRUwHaJVFZHiV
JaBMCdLuPWS7qop6mi1bSapLCk97k2s4eE8Lfbl5IV66Edcx/fziSChN8mw++9XT
49IhwjOlp9g6TKX/8nBQeooWEEn8qtqckpUwKKFhzZQMA1Lula75tz1cMOLmKpef
Tg5X9IXE9D15lJGQDOG2q3Hw1iKuV9ELgbhjTzPl87udO2rpLawU6IoAqAiO41hj
1QdmEiOYaB2lgPeOCBfmC5EzsdE2t2bAY3HEZ58l1wIDAQABo4IJ+jCCCfYwCQYD
VR0TBAIwADAdBgNVHQ4EFgQUnN5PcZGJNN9IA9nP+YsPTzf0ijswHwYDVR0jBBgw
FoAU3EZmGuUntt7NbXaBWlkOyXumPn8wCwYDVR0PBAQDAgXgMBMGA1UdJQQMMAoG
CCsGAQUFBwMBMIIJhQYDVR0RBIIJfDCCCXiCEXdlYi1wbGF0Zm9ybS50ZXN0ghV3
d3cud2ViLXBsYXRmb3JtLnRlc3SCFW5vdC13ZWItcGxhdGZvcm0udGVzdIIWd3d3
Mi53ZWItcGxhdGZvcm0udGVzdIIWd3d3MS53ZWItcGxhdGZvcm0udGVzdIIZd3d3
Lnd3dy53ZWItcGxhdGZvcm0udGVzdIIZd3d3Lm5vdC13ZWItcGxhdGZvcm0udGVz
dIIad3d3Lnd3dzIud2ViLXBsYXRmb3JtLnRlc3SCGnd3dzEubm90LXdlYi1wbGF0
Zm9ybS50ZXN0ghp3d3cyLm5vdC13ZWItcGxhdGZvcm0udGVzdIIad3d3MS53d3cu
d2ViLXBsYXRmb3JtLnRlc3SCGnd3dy53d3cxLndlYi1wbGF0Zm9ybS50ZXN0ghp3
d3cyLnd3dy53ZWItcGxhdGZvcm0udGVzdIIbd3d3Mi53d3cxLndlYi1wbGF0Zm9y
bS50ZXN0ght3d3cxLnd3dzEud2ViLXBsYXRmb3JtLnRlc3SCG3d3dzIud3d3Mi53
ZWItcGxhdGZvcm0udGVzdIIbd3d3MS53d3cyLndlYi1wbGF0Zm9ybS50ZXN0gh13
d3cud3d3Lm5vdC13ZWItcGxhdGZvcm0udGVzdIIed3d3Lnd3dzIubm90LXdlYi1w
bGF0Zm9ybS50ZXN0gh54bi0tbHZlLTZsYWQud2ViLXBsYXRmb3JtLnRlc3SCHnd3
dzIud3d3Lm5vdC13ZWItcGxhdGZvcm0udGVzdIIed3d3MS53d3cubm90LXdlYi1w
bGF0Zm9ybS50ZXN0gh53d3cud3d3MS5ub3Qtd2ViLXBsYXRmb3JtLnRlc3SCH3d3
dzEud3d3Mi5ub3Qtd2ViLXBsYXRmb3JtLnRlc3SCH3d3dzIud3d3MS5ub3Qtd2Vi
LXBsYXRmb3JtLnRlc3SCH3d3dzEud3d3MS5ub3Qtd2ViLXBsYXRmb3JtLnRlc3SC
H3d3dzIud3d3Mi5ub3Qtd2ViLXBsYXRmb3JtLnRlc3SCInhuLS1sdmUtNmxhZC53
d3cud2ViLXBsYXRmb3JtLnRlc3SCInhuLS1sdmUtNmxhZC5ub3Qtd2ViLXBsYXRm
b3JtLnRlc3SCInd3dy54bi0tbHZlLTZsYWQud2ViLXBsYXRmb3JtLnRlc3SCI3hu
LS1sdmUtNmxhZC53d3cyLndlYi1wbGF0Zm9ybS50ZXN0giN4bi0tbHZlLTZsYWQu
d3d3MS53ZWItcGxhdGZvcm0udGVzdIIjd3d3Mi54bi0tbHZlLTZsYWQud2ViLXBs
YXRmb3JtLnRlc3SCI3d3dzEueG4tLWx2ZS02bGFkLndlYi1wbGF0Zm9ybS50ZXN0
giZ4bi0tbHZlLTZsYWQud3d3Lm5vdC13ZWItcGxhdGZvcm0udGVzdIImd3d3Lnhu
LS1sdmUtNmxhZC5ub3Qtd2ViLXBsYXRmb3JtLnRlc3SCJ3huLS1sdmUtNmxhZC53
d3cxLm5vdC13ZWItcGxhdGZvcm0udGVzdIInd3d3MS54bi0tbHZlLTZsYWQubm90
LXdlYi1wbGF0Zm9ybS50ZXN0gid4bi0tbHZlLTZsYWQud3d3Mi5ub3Qtd2ViLXBs
YXRmb3JtLnRlc3SCJ3d3dzIueG4tLWx2ZS02bGFkLm5vdC13ZWItcGxhdGZvcm0u
dGVzdIIpeG4tLW44ajZkczUzbHd3a3JxaHYyOGEud2ViLXBsYXRmb3JtLnRlc3SC
K3huLS1sdmUtNmxhZC54bi0tbHZlLTZsYWQud2ViLXBsYXRmb3JtLnRlc3SCLXhu
LS1uOGo2ZHM1M2x3d2tycWh2MjhhLnd3dy53ZWItcGxhdGZvcm0udGVzdIItd3d3
LnhuLS1uOGo2ZHM1M2x3d2tycWh2MjhhLndlYi1wbGF0Zm9ybS50ZXN0gi14bi0t
bjhqNmRzNTNsd3drcnFodjI4YS5ub3Qtd2ViLXBsYXRmb3JtLnRlc3SCLnd3dzEu
eG4tLW44ajZkczUzbHd3a3JxaHYyOGEud2ViLXBsYXRmb3JtLnRlc3SCLnd3dzIu
eG4tLW44ajZkczUzbHd3a3JxaHYyOGEud2ViLXBsYXRmb3JtLnRlc3SCLnhuLS1u
OGo2ZHM1M2x3d2tycWh2MjhhLnd3dzIud2ViLXBsYXRmb3JtLnRlc3SCLnhuLS1u
OGo2ZHM1M2x3d2tycWh2MjhhLnd3dzEud2ViLXBsYXRmb3JtLnRlc3SCL3huLS1s
dmUtNmxhZC54bi0tbHZlLTZsYWQubm90LXdlYi1wbGF0Zm9ybS50ZXN0gjF3d3cu
eG4tLW44ajZkczUzbHd3a3JxaHYyOGEubm90LXdlYi1wbGF0Zm9ybS50ZXN0gjF4
bi0tbjhqNmRzNTNsd3drcnFodjI4YS53d3cubm90LXdlYi1wbGF0Zm9ybS50ZXN0
gjJ4bi0tbjhqNmRzNTNsd3drcnFodjI4YS53d3cyLm5vdC13ZWItcGxhdGZvcm0u
dGVzdIIyd3d3Mi54bi0tbjhqNmRzNTNsd3drcnFodjI4YS5ub3Qtd2ViLXBsYXRm
b3JtLnRlc3SCMnd3dzEueG4tLW44ajZkczUzbHd3a3JxaHYyOGEubm90LXdlYi1w
bGF0Zm9ybS50ZXN0gjJ4bi0tbjhqNmRzNTNsd3drcnFodjI4YS53d3cxLm5vdC13
ZWItcGxhdGZvcm0udGVzdII2eG4tLW44ajZkczUzbHd3a3JxaHYyOGEueG4tLWx2
ZS02bGFkLndlYi1wbGF0Zm9ybS50ZXN0gjZ4bi0tbHZlLTZsYWQueG4tLW44ajZk
czUzbHd3a3JxaHYyOGEud2ViLXBsYXRmb3JtLnRlc3SCOnhuLS1uOGo2ZHM1M2x3
d2tycWh2MjhhLnhuLS1sdmUtNmxhZC5ub3Qtd2ViLXBsYXRmb3JtLnRlc3SCOnhu
LS1sdmUtNmxhZC54bi0tbjhqNmRzNTNsd3drcnFodjI4YS5ub3Qtd2ViLXBsYXRm
b3JtLnRlc3SCQXhuLS1uOGo2ZHM1M2x3d2tycWh2MjhhLnhuLS1uOGo2ZHM1M2x3
d2tycWh2MjhhLndlYi1wbGF0Zm9ybS50ZXN0gkV4bi0tbjhqNmRzNTNsd3drcnFo
djI4YS54bi0tbjhqNmRzNTNsd3drcnFodjI4YS5ub3Qtd2ViLXBsYXRmb3JtLnRl
c3QwDQYJKoZIhvcNAQELBQADggEBAKg9y8VtMCm6tO0fI4m7KmzCIUh22fFKiV2W
usj/vfhm7j45sIW09mnqGTrcuQDnm4Z0G864d2L7kQ1ILKHPa8ticeBPiDmgkwUM
47/v1raQr3Kr7bo8W4D1vYFSIjQtasi+3F8mvb31fGwHQeOuUfn17FRDDM1SwKkf
UteCfc81jXHjzW/ddvsJCMau2aAjix/SGaXU5qHRafR+EiNpyUUt4h2LQl9R4lin
Zdnoz2vWdjRZ1MTHOgKFT8UJIFU0fJ9K69m6NLj+JuRnF9sXA3bFPjlfjvlKKsnl
9w9y9SiYdEL4y6Zcr2horZcXPf5xPgKoWsmyKmNS5j/3KlSFuJg=
-----END CERTIFICATE-----
